target datalayout = "e-m:e-p270:32:32-p271:32:32-p272:64:64-i64:64-i128:128-f80:128-n8:16:32:64-S128"
target triple = "x86_64-pc-linux-gnu"

@.str.58 = private unnamed_addr constant [11 x i8] c"__tostring\00", align 1
@.str.59 = private unnamed_addr constant [5 x i8] c"true\00", align 1
@.str.60 = private unnamed_addr constant [6 x i8] c"false\00", align 1
@.str.61 = private unnamed_addr constant [4 x i8] c"nil\00", align 1
@.str.62 = private unnamed_addr constant [7 x i8] c"%s: %p\00", align 1

; Function Attrs: nounwind uwtable
define internal i32 @luaB_tostring(ptr noundef %0) #0 {
  %2 = alloca i32, align 4
  %3 = alloca ptr, align 8
  store ptr %0, ptr %3, align 8, !tbaa !4
  %4 = load ptr, ptr %3, align 8, !tbaa !4
  call void @luaL_checkany(ptr noundef %4, i32 noundef 1)
  %5 = load ptr, ptr %3, align 8, !tbaa !4
  %6 = call i32 @luaL_callmeta(ptr noundef %5, i32 noundef 1, ptr noundef @.str.58)
  %7 = icmp ne i32 %6, 0
  br i1 %7, label %8, label %9

8:                                                ; preds = %1
  store i32 1, ptr %2, align 4
  br label %36

9:                                                ; preds = %1
  %10 = load ptr, ptr %3, align 8, !tbaa !4
  %11 = call i32 @lua_type(ptr noundef %10, i32 noundef 1)
  switch i32 %11, label %26 [
    i32 3, label %12
    i32 4, label %16
    i32 1, label %18
    i32 0, label %24
  ]

12:                                               ; preds = %9
  %13 = load ptr, ptr %3, align 8, !tbaa !4
  %14 = load ptr, ptr %3, align 8, !tbaa !4
  %15 = call ptr @lua_tolstring(ptr noundef %14, i32 noundef 1, ptr noundef null)
  call void @lua_pushstring(ptr noundef %13, ptr noundef %15)
  br label %35

16:                                               ; preds = %9
  %17 = load ptr, ptr %3, align 8, !tbaa !4
  call void @lua_pushvalue(ptr noundef %17, i32 noundef 1)
  br label %35

18:                                               ; preds = %9
  %19 = load ptr, ptr %3, align 8, !tbaa !4
  %20 = load ptr, ptr %3, align 8, !tbaa !4
  %21 = call i32 @lua_toboolean(ptr noundef %20, i32 noundef 1)
  %22 = icmp ne i32 %21, 0
  %23 = select i1 %22, ptr @.str.59, ptr @.str.60
  call void @lua_pushstring(ptr noundef %19, ptr noundef %23)
  br label %35

24:                                               ; preds = %9
  %25 = load ptr, ptr %3, align 8, !tbaa !4
  call void @lua_pushlstring(ptr noundef %25, ptr noundef @.str.61, i64 noundef 3)
  br label %35

26:                                               ; preds = %9
  %27 = load ptr, ptr %3, align 8, !tbaa !4
  %28 = load ptr, ptr %3, align 8, !tbaa !4
  %29 = load ptr, ptr %3, align 8, !tbaa !4
  %30 = call i32 @lua_type(ptr noundef %29, i32 noundef 1)
  %31 = call ptr @lua_typename(ptr noundef %28, i32 noundef %30)
  %32 = load ptr, ptr %3, align 8, !tbaa !4
  %33 = call ptr @lua_topointer(ptr noundef %32, i32 noundef 1)
  %34 = call ptr (ptr, ptr, ...) @lua_pushfstring(ptr noundef %27, ptr noundef @.str.62, ptr noundef %31, ptr noundef %33)
  br label %35

35:                                               ; preds = %26, %24, %18, %16, %12
  store i32 1, ptr %2, align 4
  br label %36

36:                                               ; preds = %35, %8
  %37 = load i32, ptr %2, align 4
  ret i32 %37
}