; Function Attrs: nounwind uwtable
define internal noundef i32 @luaB_tostring(ptr noundef %0) #0 {
  tail call void @luaL_checkany(ptr noundef %0, i32 noundef 1) #8
  %2 = tail call i32 @luaL_callmeta(ptr noundef %0, i32 noundef 1, ptr noundef nonnull @.str.58) #8
  %.not = icmp eq i32 %2, 0
  br i1 %.not, label %3, label %17

3:                                                ; preds = %1
  %4 = tail call i32 @lua_type(ptr noundef %0, i32 noundef 1) #8
  switch i32 %4, label %12 [
    i32 3, label %5
    i32 4, label %7
    i32 1, label %8
    i32 0, label %11
  ]

5:                                                ; preds = %3
  %6 = tail call ptr @lua_tolstring(ptr noundef %0, i32 noundef 1, ptr noundef null) #8
  tail call void @lua_pushstring(ptr noundef %0, ptr noundef %6) #8
  br label %17

7:                                                ; preds = %3
  tail call void @lua_pushvalue(ptr noundef %0, i32 noundef 1) #8
  br label %17

8:                                                ; preds = %3
  %9 = tail call i32 @lua_toboolean(ptr noundef %0, i32 noundef 1) #8
  %.not13 = icmp eq i32 %9, 0
  %10 = select i1 %.not13, ptr @.str.60, ptr @.str.59
  tail call void @lua_pushstring(ptr noundef %0, ptr noundef nonnull %10) #8
  br label %17

11:                                               ; preds = %3
  tail call void @lua_pushlstring(ptr noundef %0, ptr noundef nonnull @.str.61, i64 noundef 3) #8
  br label %17

12:                                               ; preds = %3
  %13 = tail call i32 @lua_type(ptr noundef %0, i32 noundef 1) #8
  %14 = tail call ptr @lua_typename(ptr noundef %0, i32 noundef %13) #8
  %15 = tail call ptr @lua_topointer(ptr noundef %0, i32 noundef 1) #8
  %16 = tail call ptr (ptr, ptr, ...) @lua_pushfstring(ptr noundef %0, ptr noundef nonnull @.str.62, ptr noundef %14, ptr noundef %15) #8
  br label %17

17:                                               ; preds = %5, %7, %8, %11, %12, %1
  ret i32 1
}